target datalayout = "e-m:e-p270:32:32-p271:32:32-p272:64:64-i64:64-i128:128-f80:128-n8:16:32:64-S128"
target triple = "x86_64-pc-linux-gnu"

%"class.cv::videostab::InpainterBase" = type { ptr, i32, i32, ptr, ptr, ptr, ptr }
%"class.cv::utils::trace::details::Region" = type <{ ptr, i32, [4 x i8] }>
%"class.cv::Mat" = type { i32, i32, i32, i32, ptr, ptr, ptr, ptr, ptr, ptr, %"struct.cv::MatSize", %"struct.cv::MatStep" }
%"struct.cv::MatSize" = type { ptr }
%"struct.cv::MatStep" = type { ptr, [2 x i64] }
%"class.cv::Mat_.18" = type { %"class.cv::Mat" }
%"class.cv::Mat_.19" = type { %"class.cv::Mat" }
%"class.cv::Mat_" = type { %"class.cv::Mat" }
%"class.cv::videostab::FastMarchingMethod" = type <{ float, [4 x i8], %"class.cv::Mat_.19", %"class.cv::Mat_", %"class.cv::Mat_.20", %"class.std::vector.21", i32, [4 x i8] }>
%"class.cv::Mat_.20" = type { %"class.cv::Mat" }
%"class.std::vector.21" = type { %"struct.std::_Vector_base.22" }
%"struct.std::_Vector_base.22" = type { %"struct.std::_Vector_base<cv::videostab::FastMarchingMethod::DXY, std::allocator<cv::videostab::FastMarchingMethod::DXY>>::_Vector_impl" }
%"struct.std::_Vector_base<cv::videostab::FastMarchingMethod::DXY, std::allocator<cv::videostab::FastMarchingMethod::DXY>>::_Vector_impl" = type { %"struct.std::_Vector_base<cv::videostab::FastMarchingMethod::DXY, std::allocator<cv::videostab::FastMarchingMethod::DXY>>::_Vector_impl_data" }
%"struct.std::_Vector_base<cv::videostab::FastMarchingMethod::DXY, std::allocator<cv::videostab::FastMarchingMethod::DXY>>::_Vector_impl_data" = type { ptr, ptr, ptr }
%"class.cv::videostab::ColorAverageInpaintBody" = type { %"class.cv::Mat_.19", %"class.cv::Mat_.18" }
%"class.cv::videostab::ColorAverageInpainter" = type { %"class.cv::videostab::InpainterBase", %"class.cv::videostab::FastMarchingMethod" }

; Function Attrs: inlinehint mustprogress uwtable
define linkonce_odr hidden void @_ZN2cv4Mat_INS_7Point3_IhEEEC2ERKS3_(ptr noundef nonnull align 8 dereferenceable(96) %0, ptr noundef nonnull align 8 dereferenceable(96) %1) unnamed_addr #9 comdat align 2 {
  %3 = alloca ptr, align 8
  %4 = alloca ptr, align 8
  store ptr %0, ptr %3, align 8, !tbaa !67
  store ptr %1, ptr %4, align 8, !tbaa !67
  %5 = load ptr, ptr %3, align 8
  %6 = load ptr, ptr %4, align 8, !tbaa !67
  call void @_ZN2cv3MatC2ERKS0_(ptr noundef nonnull align 8 dereferenceable(96) %5, ptr noundef nonnull align 8 dereferenceable(96) %6)
  ret void
}

; Function Attrs: inlinehint mustprogress uwtable
define linkonce_odr hidden void @_ZN2cv4Mat_IhEC2ERKS1_(ptr noundef nonnull align 8 dereferenceable(96) %0, ptr noundef nonnull align 8 dereferenceable(96) %1) unnamed_addr #9 comdat align 2 {
  %3 = alloca ptr, align 8
  %4 = alloca ptr, align 8
  store ptr %0, ptr %3, align 8, !tbaa !115
  store ptr %1, ptr %4, align 8, !tbaa !115
  %5 = load ptr, ptr %3, align 8
  %6 = load ptr, ptr %4, align 8, !tbaa !115
  call void @_ZN2cv3MatC2ERKS0_(ptr noundef nonnull align 8 dereferenceable(96) %5, ptr noundef nonnull align 8 dereferenceable(96) %6)
  ret void
}

; Function Attrs: inlinehint mustprogress nounwind uwtable
define linkonce_odr hidden void @_ZN2cv4Mat_INS_7Point3_IhEEEC2Ev(ptr noundef nonnull align 8 dereferenceable(96) %0) unnamed_addr #7 comdat align 2 {
  %2 = alloca ptr, align 8
  store ptr %0, ptr %2, align 8, !tbaa !67
  %3 = load ptr, ptr %2, align 8
  call void @_ZN2cv3MatC2Ev(ptr noundef nonnull align 8 dereferenceable(96) %3) #3
  %4 = getelementptr inbounds nuw %"class.cv::Mat", ptr %3, i32 0, i32 0
  %5 = load i32, ptr %4, align 8, !tbaa !82
  %6 = and i32 %5, -4096
  %7 = add nsw i32 %6, 16
  %8 = getelementptr inbounds nuw %"class.cv::Mat", ptr %3, i32 0, i32 0
  store i32 %7, ptr %8, align 8, !tbaa !82
  ret void
}

; Function Attrs: inlinehint mustprogress nounwind uwtable
define linkonce_odr hidden void @_ZN2cv4Mat_IhEC2Ev(ptr noundef nonnull align 8 dereferenceable(96) %0) unnamed_addr #7 comdat align 2 {
  %2 = alloca ptr, align 8
  store ptr %0, ptr %2, align 8, !tbaa !115
  %3 = load ptr, ptr %2, align 8
  call void @_ZN2cv3MatC2Ev(ptr noundef nonnull align 8 dereferenceable(96) %3) #3
  %4 = getelementptr inbounds nuw %"class.cv::Mat", ptr %3, i32 0, i32 0
  %5 = load i32, ptr %4, align 8, !tbaa !82
  %6 = and i32 %5, -4096
  %7 = add nsw i32 %6, 0
  %8 = getelementptr inbounds nuw %"class.cv::Mat", ptr %3, i32 0, i32 0
  store i32 %7, ptr %8, align 8, !tbaa !82
  ret void
}

; Function Attrs: inlinehint mustprogress nounwind uwtable
define linkonce_odr hidden void @_ZN2cv9videostab23ColorAverageInpaintBodyD2Ev(ptr noundef nonnull align 8 dereferenceable(192) %0) unnamed_addr #7 comdat align 2 {
  %2 = alloca ptr, align 8
  store ptr %0, ptr %2, align 8, !tbaa !229
  %3 = load ptr, ptr %2, align 8
  %4 = getelementptr inbounds nuw %"class.cv::videostab::ColorAverageInpaintBody", ptr %3, i32 0, i32 1
  call void @_ZN2cv3MatD2Ev(ptr noundef nonnull align 8 dereferenceable(96) %4) #3
  %5 = getelementptr inbounds nuw %"class.cv::videostab::ColorAverageInpaintBody", ptr %3, i32 0, i32 0
  call void @_ZN2cv3MatD2Ev(ptr noundef nonnull align 8 dereferenceable(96) %5) #3
  ret void
}

; Function Attrs: inlinehint mustprogress uwtable
define linkonce_odr hidden void @_ZN2cv9videostab23ColorAverageInpaintBodyC2ERKS1_(ptr noundef nonnull align 8 dereferenceable(192) %0, ptr noundef nonnull align 8 dereferenceable(192) %1) unnamed_addr #9 comdat align 2 personality ptr @__gxx_personality_v0 {
  %3 = alloca ptr, align 8
  %4 = alloca ptr, align 8
  %5 = alloca ptr, align 8
  %6 = alloca i32, align 4
  store ptr %0, ptr %3, align 8, !tbaa !229
  store ptr %1, ptr %4, align 8, !tbaa !229
  %7 = load ptr, ptr %3, align 8
  %8 = getelementptr inbounds nuw %"class.cv::videostab::ColorAverageInpaintBody", ptr %7, i32 0, i32 0
  %9 = load ptr, ptr %4, align 8, !tbaa !229
  %10 = getelementptr inbounds nuw %"class.cv::videostab::ColorAverageInpaintBody", ptr %9, i32 0, i32 0
  call void @_ZN2cv4Mat_IhEC2ERKS1_(ptr noundef nonnull align 8 dereferenceable(96) %8, ptr noundef nonnull align 8 dereferenceable(96) %10)
  %11 = getelementptr inbounds nuw %"class.cv::videostab::ColorAverageInpaintBody", ptr %7, i32 0, i32 1
  %12 = load ptr, ptr %4, align 8, !tbaa !229
  %13 = getelementptr inbounds nuw %"class.cv::videostab::ColorAverageInpaintBody", ptr %12, i32 0, i32 1
  invoke void @_ZN2cv4Mat_INS_7Point3_IhEEEC2ERKS3_(ptr noundef nonnull align 8 dereferenceable(96) %11, ptr noundef nonnull align 8 dereferenceable(96) %13)
          to label %14 unwind label %15

14:                                               ; preds = %2
  ret void

15:                                               ; preds = %2
  %16 = landingpad { ptr, i32 }
          cleanup
  %17 = extractvalue { ptr, i32 } %16, 0
  store ptr %17, ptr %5, align 8
  %18 = extractvalue { ptr, i32 } %16, 1
  store i32 %18, ptr %6, align 4
  call void @_ZN2cv3MatD2Ev(ptr noundef nonnull align 8 dereferenceable(96) %8) #3
  br label %19

19:                                               ; preds = %15
  %20 = load ptr, ptr %5, align 8
  %21 = load i32, ptr %6, align 4
  %22 = insertvalue { ptr, i32 } poison, ptr %20, 0
  %23 = insertvalue { ptr, i32 } %22, i32 %21, 1
  resume { ptr, i32 } %23
}

; Function Attrs: inlinehint mustprogress nounwind uwtable
define linkonce_odr hidden void @_ZN2cv9videostab23ColorAverageInpaintBodyC2Ev(ptr noundef nonnull align 8 dereferenceable(192) %0) unnamed_addr #7 comdat align 2 {
  %2 = alloca ptr, align 8
  store ptr %0, ptr %2, align 8, !tbaa !229
  %3 = load ptr, ptr %2, align 8
  %4 = getelementptr inbounds nuw %"class.cv::videostab::ColorAverageInpaintBody", ptr %3, i32 0, i32 0
  call void @_ZN2cv4Mat_IhEC2Ev(ptr noundef nonnull align 8 dereferenceable(96) %4) #3
  %5 = getelementptr inbounds nuw %"class.cv::videostab::ColorAverageInpaintBody", ptr %3, i32 0, i32 1
  call void @_ZN2cv4Mat_INS_7Point3_IhEEEC2Ev(ptr noundef nonnull align 8 dereferenceable(96) %5) #3
  ret void
}

; Function Attrs: mustprogress uwtable
define void @_ZN2cv9videostab21ColorAverageInpainter7inpaintEiRNS_3MatES3_(ptr noundef nonnull align 8 dereferenceable(376) %0, i32 noundef %1, ptr noundef nonnull align 8 dereferenceable(96) %2, ptr noundef nonnull align 8 dereferenceable(96) %3) unnamed_addr #4 align 2 personality ptr @__gxx_personality_v0 {
  %5 = alloca ptr, align 8
  %6 = alloca i32, align 4
  %7 = alloca ptr, align 8
  %8 = alloca ptr, align 8
  %9 = alloca %"class.cv::utils::trace::details::Region", align 8
  %10 = alloca %"class.cv::videostab::ColorAverageInpaintBody", align 8
  %11 = alloca ptr, align 8
  %12 = alloca i32, align 4
  %13 = alloca %"class.cv::videostab::ColorAverageInpaintBody", align 8
  %14 = alloca %"class.cv::videostab::ColorAverageInpaintBody", align 8
  store ptr %0, ptr %5, align 8, !tbaa !227
  store i32 %1, ptr %6, align 4, !tbaa !8
  store ptr %2, ptr %7, align 8, !tbaa !41
  store ptr %3, ptr %8, align 8, !tbaa !41
  %15 = load ptr, ptr %5, align 8
  call void @llvm.lifetime.start.p0(i64 16, ptr %9) #3
  call void @_ZN2cv5utils5trace7details6RegionC1ERKNS3_21LocationStaticStorageE(ptr noundef nonnull align 8 dereferenceable(12) %9, ptr noundef nonnull align 8 dereferenceable(32) @_ZZN2cv9videostab21ColorAverageInpainter7inpaintEiRNS_3MatES3_E25__cv_trace_location_fn468)
  call void @llvm.lifetime.start.p0(i64 192, ptr %10) #3
  call void @_ZN2cv9videostab23ColorAverageInpaintBodyC2Ev(ptr noundef nonnull align 8 dereferenceable(192) %10) #3
  %16 = load ptr, ptr %8, align 8, !tbaa !41
  %17 = getelementptr inbounds nuw %"class.cv::videostab::ColorAverageInpaintBody", ptr %10, i32 0, i32 0
  %18 = invoke noundef nonnull align 8 dereferenceable(96) ptr @_ZN2cv4Mat_IhEaSERKNS_3MatE(ptr noundef nonnull align 8 dereferenceable(96) %17, ptr noundef nonnull align 8 dereferenceable(96) %16)
          to label %19 unwind label %28

19:                                               ; preds = %4
  %20 = load ptr, ptr %7, align 8, !tbaa !41
  %21 = getelementptr inbounds nuw %"class.cv::videostab::ColorAverageInpaintBody", ptr %10, i32 0, i32 1
  %22 = invoke noundef nonnull align 8 dereferenceable(96) ptr @_ZN2cv4Mat_INS_7Point3_IhEEEaSERKNS_3MatE(ptr noundef nonnull align 8 dereferenceable(96) %21, ptr noundef nonnull align 8 dereferenceable(96) %20)
          to label %23 unwind label %28

23:                                               ; preds = %19
  %24 = getelementptr inbounds nuw %"class.cv::videostab::ColorAverageInpainter", ptr %15, i32 0, i32 1
  %25 = load ptr, ptr %8, align 8, !tbaa !41
  invoke void @_ZN2cv9videostab23ColorAverageInpaintBodyC2ERKS1_(ptr noundef nonnull align 8 dereferenceable(192) %14, ptr noundef nonnull align 8 dereferenceable(192) %10)
          to label %26 unwind label %28

26:                                               ; preds = %23
  invoke void @_ZN2cv9videostab18FastMarchingMethod3runINS0_23ColorAverageInpaintBodyEEET_RKNS_3MatES4_(ptr dead_on_unwind writable sret(%"class.cv::videostab::ColorAverageInpaintBody") align 8 %13, ptr noundef nonnull align 8 dereferenceable(324) %24, ptr noundef nonnull align 8 dereferenceable(96) %25, ptr noundef %14)
          to label %27 unwind label %32

27:                                               ; preds = %26
  call void @_ZN2cv9videostab23ColorAverageInpaintBodyD2Ev(ptr noundef nonnull align 8 dereferenceable(192) %13) #3
  call void @_ZN2cv9videostab23ColorAverageInpaintBodyD2Ev(ptr noundef nonnull align 8 dereferenceable(192) %14) #3
  call void @_ZN2cv9videostab23ColorAverageInpaintBodyD2Ev(ptr noundef nonnull align 8 dereferenceable(192) %10) #3
  call void @llvm.lifetime.end.p0(i64 192, ptr %10) #3
  call void @_ZN2cv5utils5trace7details6RegionD2Ev(ptr noundef nonnull align 8 dereferenceable(12) %9) #3
  call void @llvm.lifetime.end.p0(i64 16, ptr %9) #3
  ret void

28:                                               ; preds = %23, %19, %4
  %29 = landingpad { ptr, i32 }
          cleanup
  %30 = extractvalue { ptr, i32 } %29, 0
  store ptr %30, ptr %11, align 8
  %31 = extractvalue { ptr, i32 } %29, 1
  store i32 %31, ptr %12, align 4
  br label %36

32:                                               ; preds = %26
  %33 = landingpad { ptr, i32 }
          cleanup
  %34 = extractvalue { ptr, i32 } %33, 0
  store ptr %34, ptr %11, align 8
  %35 = extractvalue { ptr, i32 } %33, 1
  store i32 %35, ptr %12, align 4
  call void @_ZN2cv9videostab23ColorAverageInpaintBodyD2Ev(ptr noundef nonnull align 8 dereferenceable(192) %14) #3
  br label %36

36:                                               ; preds = %32, %28
  call void @_ZN2cv9videostab23ColorAverageInpaintBodyD2Ev(ptr noundef nonnull align 8 dereferenceable(192) %10) #3
  call void @llvm.lifetime.end.p0(i64 192, ptr %10) #3
  call void @_ZN2cv5utils5trace7details6RegionD2Ev(ptr noundef nonnull align 8 dereferenceable(12) %9) #3
  call void @llvm.lifetime.end.p0(i64 16, ptr %9) #3
  br label %37

37:                                               ; preds = %36
  %38 = load ptr, ptr %11, align 8
  %39 = load i32, ptr %12, align 4
  %40 = insertvalue { ptr, i32 } poison, ptr %38, 0
  %41 = insertvalue { ptr, i32 } %40, i32 %39, 1
  resume { ptr, i32 } %41
}