; Function Attrs: mustprogress uwtable
define void @_ZN2cv9videostab21ColorAverageInpainter7inpaintEiRNS_3MatES3_(ptr noundef nonnull align 8 dereferenceable(376) %0, i32 %1, ptr noundef nonnull align 8 dereferenceable(96) %2, ptr noundef nonnull align 8 dereferenceable(96) %3) unnamed_addr #3 align 2 personality ptr @__gxx_personality_v0 {
  %5 = alloca %"class.cv::utils::trace::details::Region", align 8
  %6 = alloca %"class.cv::videostab::ColorAverageInpaintBody", align 8
  %7 = alloca %"class.cv::videostab::ColorAverageInpaintBody", align 8
  %8 = alloca %"class.cv::videostab::ColorAverageInpaintBody", align 8
  call void @llvm.lifetime.start.p0(i64 16, ptr nonnull %5) #26
  call void @_ZN2cv5utils5trace7details6RegionC1ERKNS3_21LocationStaticStorageE(ptr noundef nonnull align 8 dereferenceable(12) %5, ptr noundef nonnull align 8 dereferenceable(32) @_ZZN2cv9videostab21ColorAverageInpainter7inpaintEiRNS_3MatES3_E25__cv_trace_location_fn468)
  call void @llvm.lifetime.start.p0(i64 192, ptr nonnull %6) #26
  call void @_ZN2cv3MatC2Ev(ptr noundef nonnull align 8 dereferenceable(192) %6) #26
  %9 = load i32, ptr %6, align 8, !tbaa !41
  %10 = and i32 %9, -4096
  store i32 %10, ptr %6, align 8, !tbaa !41
  %11 = getelementptr inbounds nuw i8, ptr %6, i64 96
  call void @_ZN2cv3MatC2Ev(ptr noundef nonnull align 8 dereferenceable(96) %11) #26
  %12 = load i32, ptr %11, align 8, !tbaa !41
  %13 = and i32 %12, -4096
  %14 = or disjoint i32 %13, 16
  store i32 %14, ptr %11, align 8, !tbaa !41
  %15 = invoke noundef nonnull align 8 dereferenceable(96) ptr @_ZN2cv4Mat_IhEaSERKNS_3MatE(ptr noundef nonnull align 8 dereferenceable(96) %6, ptr noundef nonnull align 8 dereferenceable(96) %3)
          to label %16 unwind label %31

16:                                               ; preds = %4
  %17 = invoke noundef nonnull align 8 dereferenceable(96) ptr @_ZN2cv4Mat_INS_7Point3_IhEEEaSERKNS_3MatE(ptr noundef nonnull align 8 dereferenceable(96) %11, ptr noundef nonnull align 8 dereferenceable(96) %2)
          to label %18 unwind label %31

18:                                               ; preds = %16
  invoke void @_ZN2cv3MatC2ERKS0_(ptr noundef nonnull align 8 dereferenceable(192) %8, ptr noundef nonnull align 8 dereferenceable(192) %6)
          to label %.noexc unwind label %31

.noexc:                                           ; preds = %18
  %19 = getelementptr inbounds nuw i8, ptr %8, i64 96
  invoke void @_ZN2cv3MatC2ERKS0_(ptr noundef nonnull align 8 dereferenceable(96) %19, ptr noundef nonnull align 8 dereferenceable(96) %11)
          to label %_ZN2cv9videostab23ColorAverageInpaintBodyC2ERKS1_.exit unwind label %20

20:                                               ; preds = %.noexc
  %21 = landingpad { ptr, i32 }
          cleanup
  call void @_ZN2cv3MatD2Ev(ptr noundef nonnull align 8 dereferenceable(192) %8) #26
  br label %.body

_ZN2cv9videostab23ColorAverageInpaintBodyC2ERKS1_.exit: ; preds = %.noexc
  %22 = getelementptr inbounds nuw i8, ptr %0, i64 48
  invoke void @_ZN2cv9videostab18FastMarchingMethod3runINS0_23ColorAverageInpaintBodyEEET_RKNS_3MatES4_(ptr dead_on_unwind nonnull writable sret(%"class.cv::videostab::ColorAverageInpaintBody") align 8 %7, ptr noundef nonnull align 8 dereferenceable(324) %22, ptr noundef nonnull align 8 dereferenceable(96) %3, ptr noundef nonnull %8)
          to label %23 unwind label %33

23:                                               ; preds = %_ZN2cv9videostab23ColorAverageInpaintBodyC2ERKS1_.exit
  %24 = getelementptr inbounds nuw i8, ptr %7, i64 96
  call void @_ZN2cv3MatD2Ev(ptr noundef nonnull align 8 dereferenceable(96) %24) #26
  call void @_ZN2cv3MatD2Ev(ptr noundef nonnull align 8 dereferenceable(192) %7) #26
  call void @_ZN2cv3MatD2Ev(ptr noundef nonnull align 8 dereferenceable(96) %19) #26
  call void @_ZN2cv3MatD2Ev(ptr noundef nonnull align 8 dereferenceable(192) %8) #26
  call void @_ZN2cv3MatD2Ev(ptr noundef nonnull align 8 dereferenceable(96) %11) #26
  call void @_ZN2cv3MatD2Ev(ptr noundef nonnull align 8 dereferenceable(192) %6) #26
  call void @llvm.lifetime.end.p0(i64 192, ptr nonnull %6) #26
  %25 = getelementptr inbounds nuw i8, ptr %5, i64 8
  %26 = load i32, ptr %25, align 8, !tbaa !34
  %.not.i = icmp eq i32 %26, 0
  br i1 %.not.i, label %_ZN2cv5utils5trace7details6RegionD2Ev.exit, label %27

27:                                               ; preds = %23
  invoke void @_ZN2cv5utils5trace7details6Region7destroyEv(ptr noundef nonnull align 8 dereferenceable(12) %5)
          to label %_ZN2cv5utils5trace7details6RegionD2Ev.exit unwind label %28

28:                                               ; preds = %27
  %29 = landingpad { ptr, i32 }
          catch ptr null
  %30 = extractvalue { ptr, i32 } %29, 0
  call void @__clang_call_terminate(ptr %30) #27
  unreachable

_ZN2cv5utils5trace7details6RegionD2Ev.exit:       ; preds = %23, %27
  call void @llvm.lifetime.end.p0(i64 16, ptr nonnull %5) #26
  ret void

31:                                               ; preds = %18, %16, %4
  %32 = landingpad { ptr, i32 }
          cleanup
  br label %.body

33:                                               ; preds = %_ZN2cv9videostab23ColorAverageInpaintBodyC2ERKS1_.exit
  %34 = landingpad { ptr, i32 }
          cleanup
  call void @_ZN2cv3MatD2Ev(ptr noundef nonnull align 8 dereferenceable(96) %19) #26
  call void @_ZN2cv3MatD2Ev(ptr noundef nonnull align 8 dereferenceable(192) %8) #26
  br label %.body

.body:                                            ; preds = %31, %20, %33
  %.pn = phi { ptr, i32 } [ %34, %33 ], [ %32, %31 ], [ %21, %20 ]
  call void @_ZN2cv3MatD2Ev(ptr noundef nonnull align 8 dereferenceable(96) %11) #26
  call void @_ZN2cv3MatD2Ev(ptr noundef nonnull align 8 dereferenceable(192) %6) #26
  call void @llvm.lifetime.end.p0(i64 192, ptr nonnull %6) #26
  call void @_ZN2cv5utils5trace7details6RegionD2Ev(ptr noundef nonnull align 8 dereferenceable(12) %5) #26
  call void @llvm.lifetime.end.p0(i64 16, ptr nonnull %5) #26
  resume { ptr, i32 } %.pn
}